; Function Attrs: mustprogress uwtable
define dso_local noundef ptr @_ZN4Luau9TypeArena17addTypePackFamilyERKNS_14TypePackFamilyESt6vectorIPKNS_4TypeESaIS7_EES4_IPKNS_11TypePackVarESaISC_EE(ptr noundef nonnull align 8 dereferenceable(88) %0, ptr noundef nonnull align 1 %1, ptr noundef captures(none) %2, ptr noundef captures(none) %3) local_unnamed_addr #1 align 2 personality ptr @__gxx_personality_v0 {
  %5 = alloca %"struct.Luau::TypeFamilyInstanceTypePack", align 8
  store ptr %1, ptr %5, align 8
  %6 = getelementptr inbounds nuw i8, ptr %5, i64 8
  %7 = load ptr, ptr %2, align 8
  store ptr %7, ptr %6, align 8
  %8 = getelementptr inbounds nuw i8, ptr %5, i64 16
  %9 = getelementptr inbounds nuw i8, ptr %2, i64 8
  %10 = load ptr, ptr %9, align 8
  store ptr %10, ptr %8, align 8
  %11 = getelementptr inbounds nuw i8, ptr %5, i64 24
  %12 = getelementptr inbounds nuw i8, ptr %2, i64 16
  %13 = load ptr, ptr %12, align 8
  store ptr %13, ptr %11, align 8
  tail call void @llvm.memset.p0.i64(ptr noundef nonnull align 8 dereferenceable(24) %2, i8 0, i64 24, i1 false)
  %14 = getelementptr inbounds nuw i8, ptr %5, i64 32
  %15 = load ptr, ptr %3, align 8
  store ptr %15, ptr %14, align 8
  %16 = getelementptr inbounds nuw i8, ptr %5, i64 40
  %17 = getelementptr inbounds nuw i8, ptr %3, i64 8
  %18 = load ptr, ptr %17, align 8
  store ptr %18, ptr %16, align 8
  %19 = getelementptr inbounds nuw i8, ptr %5, i64 48
  %20 = getelementptr inbounds nuw i8, ptr %3, i64 16
  %21 = load ptr, ptr %20, align 8
  store ptr %21, ptr %19, align 8
  tail call void @llvm.memset.p0.i64(ptr noundef nonnull align 8 dereferenceable(24) %3, i8 0, i64 24, i1 false)
  %22 = invoke noundef ptr @_ZN4Luau9TypeArena11addTypePackINS_26TypeFamilyInstanceTypePackEEEPKNS_11TypePackVarET_(ptr noundef nonnull align 8 dereferenceable(88) %0, ptr noundef nonnull %5)
          to label %23 unwind label %36

23:                                               ; preds = %4
  %24 = load ptr, ptr %14, align 8
  %.not.i.i.i.i = icmp eq ptr %24, null
  br i1 %.not.i.i.i.i, label %_ZNSt6vectorIPKN4Luau11TypePackVarESaIS3_EED2Ev.exit.i, label %25

25:                                               ; preds = %23
  %26 = load ptr, ptr %19, align 8
  %27 = ptrtoint ptr %26 to i64
  %28 = ptrtoint ptr %24 to i64
  %29 = sub i64 %27, %28
  call void @_ZdlPvm(ptr noundef nonnull %24, i64 noundef %29) #20
  br label %_ZNSt6vectorIPKN4Luau11TypePackVarESaIS3_EED2Ev.exit.i

_ZNSt6vectorIPKN4Luau11TypePackVarESaIS3_EED2Ev.exit.i: ; preds = %25, %23
  %30 = load ptr, ptr %6, align 8
  %.not.i.i.i1.i = icmp eq ptr %30, null
  br i1 %.not.i.i.i1.i, label %_ZN4Luau26TypeFamilyInstanceTypePackD2Ev.exit, label %31

31:                                               ; preds = %_ZNSt6vectorIPKN4Luau11TypePackVarESaIS3_EED2Ev.exit.i
  %32 = load ptr, ptr %11, align 8
  %33 = ptrtoint ptr %32 to i64
  %34 = ptrtoint ptr %30 to i64
  %35 = sub i64 %33, %34
  call void @_ZdlPvm(ptr noundef nonnull %30, i64 noundef %35) #20
  br label %_ZN4Luau26TypeFamilyInstanceTypePackD2Ev.exit

_ZN4Luau26TypeFamilyInstanceTypePackD2Ev.exit:    ; preds = %_ZNSt6vectorIPKN4Luau11TypePackVarESaIS3_EED2Ev.exit.i, %31
  ret ptr %22

36:                                               ; preds = %4
  %37 = landingpad { ptr, i32 }
          cleanup
  call void @_ZN4Luau26TypeFamilyInstanceTypePackD2Ev(ptr noundef nonnull align 8 dereferenceable(56) %5) #16
  resume { ptr, i32 } %37
}